; Function Attrs: mustprogress nofree norecurse nosync nounwind sspstrong willreturn memory(argmem: read) uwtable
define hidden i64 @rb_vm_ci_mid(ptr noundef %0) local_unnamed_addr #10 {
  %2 = ptrtoint ptr %0 to i64
  %3 = and i64 %2, 1
  %.not.i.not.i = icmp eq i64 %3, 0
  br i1 %.not.i.not.i, label %6, label %4

4:                                                ; preds = %1
  %5 = lshr i64 %2, 32
  br label %vm_ci_mid.exit

6:                                                ; preds = %1
  %7 = getelementptr inbounds nuw i8, ptr %0, i64 16
  %8 = load i64, ptr %7, align 8, !tbaa !127
  br label %vm_ci_mid.exit

vm_ci_mid.exit:                                   ; preds = %4, %6
  %.0.i = phi i64 [ %5, %4 ], [ %8, %6 ]
  ret i64 %.0.i
}